target datalayout = "e-m:e-p270:32:32-p271:32:32-p272:64:64-i64:64-i128:128-f80:128-n8:16:32:64-S128"
target triple = "x86_64-pc-linux-gnu"

%"struct.std::_Rb_tree_header" = type { %"struct.std::_Rb_tree_node_base", i64 }
%"struct.std::_Rb_tree_node_base" = type { i32, ptr, ptr, ptr }
%"class.nlohmann::basic_json" = type { i8, %"union.nlohmann::basic_json<>::json_value" }
%"union.nlohmann::basic_json<>::json_value" = type { ptr }
%"struct.std::pair.113" = type { %"class.nlohmann::basic_json", %"class.std::map.115" }
%"class.std::map.115" = type { %"class.std::_Rb_tree.116" }
%"class.std::_Rb_tree.116" = type { %"struct.std::_Rb_tree<nix::ref<const nix::flake::Node>, std::pair<const nix::ref<const nix::flake::Node>, std::__cxx11::basic_string<char>>, std::_Select1st<std::pair<const nix::ref<const nix::flake::Node>, std::__cxx11::basic_string<char>>>, std::less<nix::ref<const nix::flake::Node>>>::_Rb_tree_impl" }
%"struct.std::_Rb_tree<nix::ref<const nix::flake::Node>, std::pair<const nix::ref<const nix::flake::Node>, std::__cxx11::basic_string<char>>, std::_Select1st<std::pair<const nix::ref<const nix::flake::Node>, std::__cxx11::basic_string<char>>>, std::less<nix::ref<const nix::flake::Node>>>::_Rb_tree_impl" = type { %"struct.std::_Rb_tree_key_compare.120", %"struct.std::_Rb_tree_header" }
%"struct.std::_Rb_tree_key_compare.120" = type { %"struct.std::less.121" }
%"struct.std::less.121" = type { i8 }

; Function Attrs: mustprogress uwtable
define noundef zeroext i1 @_ZNK3nix5flake8LockFileeqERKS1_(ptr noundef nonnull align 8 dereferenceable(16) %0, ptr noundef nonnull align 8 dereferenceable(16) %1) #5 align 2 personality ptr @__gxx_personality_v0 {
  %3 = alloca ptr, align 8
  %4 = alloca ptr, align 8
  %5 = alloca %"struct.std::pair.113", align 8
  %6 = alloca %"struct.std::pair.113", align 8
  %7 = alloca ptr, align 8
  %8 = alloca i32, align 4
  store ptr %0, ptr %3, align 8
  store ptr %1, ptr %4, align 8
  %9 = load ptr, ptr %3, align 8
  call void @_ZNK3nix5flake8LockFile6toJSONB5cxx11Ev(ptr dead_on_unwind writable sret(%"struct.std::pair.113") align 8 %5, ptr noundef nonnull align 8 dereferenceable(16) %9)
  %10 = getelementptr inbounds %"struct.std::pair.113", ptr %5, i32 0, i32 0
  %11 = load ptr, ptr %4, align 8
  invoke void @_ZNK3nix5flake8LockFile6toJSONB5cxx11Ev(ptr dead_on_unwind writable sret(%"struct.std::pair.113") align 8 %6, ptr noundef nonnull align 8 dereferenceable(16) %11)
          to label %12 unwind label %15

12:                                               ; preds = %2
  %13 = getelementptr inbounds %"struct.std::pair.113", ptr %6, i32 0, i32 0
  %14 = call noundef zeroext i1 @_ZN8nlohmanneqERKNS_10basic_jsonISt3mapSt6vectorNSt7__cxx1112basic_stringIcSt11char_traitsIcESaIcEEEblmdSaNS_14adl_serializerES2_IhSaIhEEEESE_(ptr noundef nonnull align 8 dereferenceable(16) %10, ptr noundef nonnull align 8 dereferenceable(16) %13) #1
  call void @_ZNSt4pairIN8nlohmann10basic_jsonISt3mapSt6vectorNSt7__cxx1112basic_stringIcSt11char_traitsIcESaIcEEEblmdSaNS0_14adl_serializerES3_IhSaIhEEEES2_IN3nix3refIKNSE_5flake4NodeEEES9_St4lessISJ_ESaIS_IKSJ_S9_EEEED2Ev(ptr noundef nonnull align 8 dereferenceable(64) %6) #1
  call void @_ZNSt4pairIN8nlohmann10basic_jsonISt3mapSt6vectorNSt7__cxx1112basic_stringIcSt11char_traitsIcESaIcEEEblmdSaNS0_14adl_serializerES3_IhSaIhEEEES2_IN3nix3refIKNSE_5flake4NodeEEES9_St4lessISJ_ESaIS_IKSJ_S9_EEEED2Ev(ptr noundef nonnull align 8 dereferenceable(64) %5) #1
  ret i1 %14

15:                                               ; preds = %2
  %16 = landingpad { ptr, i32 }
          cleanup
  %17 = extractvalue { ptr, i32 } %16, 0
  store ptr %17, ptr %7, align 8
  %18 = extractvalue { ptr, i32 } %16, 1
  store i32 %18, ptr %8, align 4
  call void @_ZNSt4pairIN8nlohmann10basic_jsonISt3mapSt6vectorNSt7__cxx1112basic_stringIcSt11char_traitsIcESaIcEEEblmdSaNS0_14adl_serializerES3_IhSaIhEEEES2_IN3nix3refIKNSE_5flake4NodeEEES9_St4lessISJ_ESaIS_IKSJ_S9_EEEED2Ev(ptr noundef nonnull align 8 dereferenceable(64) %5) #1
  br label %19

19:                                               ; preds = %15
  %20 = load ptr, ptr %7, align 8
  %21 = load i32, ptr %8, align 4
  %22 = insertvalue { ptr, i32 } poison, ptr %20, 0
  %23 = insertvalue { ptr, i32 } %22, i32 %21, 1
  resume { ptr, i32 } %23
}