; Function Attrs: mustprogress uwtable
define noundef zeroext i1 @_ZNK3nix5flake8LockFileeqERKS1_(ptr noundef nonnull align 8 dereferenceable(16) %0, ptr noundef nonnull align 8 dereferenceable(16) %1) local_unnamed_addr #4 align 2 personality ptr @__gxx_personality_v0 {
  %3 = alloca %"struct.std::pair.113", align 8
  %4 = alloca %"struct.std::pair.113", align 8
  call void @_ZNK3nix5flake8LockFile6toJSONB5cxx11Ev(ptr dead_on_unwind nonnull writable sret(%"struct.std::pair.113") align 8 %3, ptr noundef nonnull align 8 dereferenceable(16) %0)
  invoke void @_ZNK3nix5flake8LockFile6toJSONB5cxx11Ev(ptr dead_on_unwind nonnull writable sret(%"struct.std::pair.113") align 8 %4, ptr noundef nonnull align 8 dereferenceable(16) %1)
          to label %5 unwind label %29

5:                                                ; preds = %2
  %6 = call noundef zeroext i1 @_ZN8nlohmanneqERKNS_10basic_jsonISt3mapSt6vectorNSt7__cxx1112basic_stringIcSt11char_traitsIcESaIcEEEblmdSaNS_14adl_serializerES2_IhSaIhEEEESE_(ptr noundef nonnull align 8 dereferenceable(16) %3, ptr noundef nonnull align 8 dereferenceable(16) %4) #29
  %7 = getelementptr inbounds i8, ptr %4, i64 16
  %8 = getelementptr inbounds i8, ptr %4, i64 32
  %9 = load ptr, ptr %8, align 8
  invoke void @_ZNSt8_Rb_treeIN3nix3refIKNS0_5flake4NodeEEESt4pairIKS5_NSt7__cxx1112basic_stringIcSt11char_traitsIcESaIcEEEESt10_Select1stISE_ESt4lessIS5_ESaISE_EE8_M_eraseEPSt13_Rb_tree_nodeISE_E(ptr noundef nonnull align 8 dereferenceable(48) %7, ptr noundef %9)
          to label %_ZNSt3mapIN3nix3refIKNS0_5flake4NodeEEENSt7__cxx1112basic_stringIcSt11char_traitsIcESaIcEEESt4lessIS5_ESaISt4pairIKS5_SB_EEED2Ev.exit.i unwind label %10

10:                                               ; preds = %5
  %11 = landingpad { ptr, i32 }
          catch ptr null
  %12 = extractvalue { ptr, i32 } %11, 0
  call void @__clang_call_terminate(ptr %12) #33
  unreachable

_ZNSt3mapIN3nix3refIKNS0_5flake4NodeEEENSt7__cxx1112basic_stringIcSt11char_traitsIcESaIcEEESt4lessIS5_ESaISt4pairIKS5_SB_EEED2Ev.exit.i: ; preds = %5
  %13 = getelementptr inbounds i8, ptr %4, i64 8
  %14 = load i8, ptr %4, align 8
  invoke void @_ZN8nlohmann10basic_jsonISt3mapSt6vectorNSt7__cxx1112basic_stringIcSt11char_traitsIcESaIcEEEblmdSaNS_14adl_serializerES2_IhSaIhEEE10json_value7destroyENS_6detail7value_tE(ptr noundef nonnull align 8 dereferenceable(8) %13, i8 noundef zeroext %14) #35
          to label %_ZNSt4pairIN8nlohmann10basic_jsonISt3mapSt6vectorNSt7__cxx1112basic_stringIcSt11char_traitsIcESaIcEEEblmdSaNS0_14adl_serializerES3_IhSaIhEEEES2_IN3nix3refIKNSE_5flake4NodeEEES9_St4lessISJ_ESaIS_IKSJ_S9_EEEED2Ev.exit unwind label %15

15:                                               ; preds = %_ZNSt3mapIN3nix3refIKNS0_5flake4NodeEEENSt7__cxx1112basic_stringIcSt11char_traitsIcESaIcEEESt4lessIS5_ESaISt4pairIKS5_SB_EEED2Ev.exit.i
  %16 = landingpad { ptr, i32 }
          catch ptr null
  %17 = extractvalue { ptr, i32 } %16, 0
  call void @__clang_call_terminate(ptr %17) #33
  unreachable

_ZNSt4pairIN8nlohmann10basic_jsonISt3mapSt6vectorNSt7__cxx1112basic_stringIcSt11char_traitsIcESaIcEEEblmdSaNS0_14adl_serializerES3_IhSaIhEEEES2_IN3nix3refIKNSE_5flake4NodeEEES9_St4lessISJ_ESaIS_IKSJ_S9_EEEED2Ev.exit: ; preds = %_ZNSt3mapIN3nix3refIKNS0_5flake4NodeEEENSt7__cxx1112basic_stringIcSt11char_traitsIcESaIcEEESt4lessIS5_ESaISt4pairIKS5_SB_EEED2Ev.exit.i
  %18 = getelementptr inbounds i8, ptr %3, i64 16
  %19 = getelementptr inbounds i8, ptr %3, i64 32
  %20 = load ptr, ptr %19, align 8
  invoke void @_ZNSt8_Rb_treeIN3nix3refIKNS0_5flake4NodeEEESt4pairIKS5_NSt7__cxx1112basic_stringIcSt11char_traitsIcESaIcEEEESt10_Select1stISE_ESt4lessIS5_ESaISE_EE8_M_eraseEPSt13_Rb_tree_nodeISE_E(ptr noundef nonnull align 8 dereferenceable(48) %18, ptr noundef %20)
          to label %_ZNSt3mapIN3nix3refIKNS0_5flake4NodeEEENSt7__cxx1112basic_stringIcSt11char_traitsIcESaIcEEESt4lessIS5_ESaISt4pairIKS5_SB_EEED2Ev.exit.i3 unwind label %21

21:                                               ; preds = %_ZNSt4pairIN8nlohmann10basic_jsonISt3mapSt6vectorNSt7__cxx1112basic_stringIcSt11char_traitsIcESaIcEEEblmdSaNS0_14adl_serializerES3_IhSaIhEEEES2_IN3nix3refIKNSE_5flake4NodeEEES9_St4lessISJ_ESaIS_IKSJ_S9_EEEED2Ev.exit
  %22 = landingpad { ptr, i32 }
          catch ptr null
  %23 = extractvalue { ptr, i32 } %22, 0
  call void @__clang_call_terminate(ptr %23) #33
  unreachable

_ZNSt3mapIN3nix3refIKNS0_5flake4NodeEEENSt7__cxx1112basic_stringIcSt11char_traitsIcESaIcEEESt4lessIS5_ESaISt4pairIKS5_SB_EEED2Ev.exit.i3: ; preds = %_ZNSt4pairIN8nlohmann10basic_jsonISt3mapSt6vectorNSt7__cxx1112basic_stringIcSt11char_traitsIcESaIcEEEblmdSaNS0_14adl_serializerES3_IhSaIhEEEES2_IN3nix3refIKNSE_5flake4NodeEEES9_St4lessISJ_ESaIS_IKSJ_S9_EEEED2Ev.exit
  %24 = getelementptr inbounds i8, ptr %3, i64 8
  %25 = load i8, ptr %3, align 8
  invoke void @_ZN8nlohmann10basic_jsonISt3mapSt6vectorNSt7__cxx1112basic_stringIcSt11char_traitsIcESaIcEEEblmdSaNS_14adl_serializerES2_IhSaIhEEE10json_value7destroyENS_6detail7value_tE(ptr noundef nonnull align 8 dereferenceable(8) %24, i8 noundef zeroext %25) #35
          to label %_ZNSt4pairIN8nlohmann10basic_jsonISt3mapSt6vectorNSt7__cxx1112basic_stringIcSt11char_traitsIcESaIcEEEblmdSaNS0_14adl_serializerES3_IhSaIhEEEES2_IN3nix3refIKNSE_5flake4NodeEEES9_St4lessISJ_ESaIS_IKSJ_S9_EEEED2Ev.exit4 unwind label %26

26:                                               ; preds = %_ZNSt3mapIN3nix3refIKNS0_5flake4NodeEEENSt7__cxx1112basic_stringIcSt11char_traitsIcESaIcEEESt4lessIS5_ESaISt4pairIKS5_SB_EEED2Ev.exit.i3
  %27 = landingpad { ptr, i32 }
          catch ptr null
  %28 = extractvalue { ptr, i32 } %27, 0
  call void @__clang_call_terminate(ptr %28) #33
  unreachable

_ZNSt4pairIN8nlohmann10basic_jsonISt3mapSt6vectorNSt7__cxx1112basic_stringIcSt11char_traitsIcESaIcEEEblmdSaNS0_14adl_serializerES3_IhSaIhEEEES2_IN3nix3refIKNSE_5flake4NodeEEES9_St4lessISJ_ESaIS_IKSJ_S9_EEEED2Ev.exit4: ; preds = %_ZNSt3mapIN3nix3refIKNS0_5flake4NodeEEENSt7__cxx1112basic_stringIcSt11char_traitsIcESaIcEEESt4lessIS5_ESaISt4pairIKS5_SB_EEED2Ev.exit.i3
  ret i1 %6

29:                                               ; preds = %2
  %30 = landingpad { ptr, i32 }
          cleanup
  call void @_ZNSt4pairIN8nlohmann10basic_jsonISt3mapSt6vectorNSt7__cxx1112basic_stringIcSt11char_traitsIcESaIcEEEblmdSaNS0_14adl_serializerES3_IhSaIhEEEES2_IN3nix3refIKNSE_5flake4NodeEEES9_St4lessISJ_ESaIS_IKSJ_S9_EEEED2Ev(ptr noundef nonnull align 8 dereferenceable(64) %3) #29
  resume { ptr, i32 } %30
}